; Function Attrs: mustprogress nofree nounwind uwtable
define noundef ptr @_ZN5boost9container3pmr20set_default_resourceEPNS1_15memory_resourceE(ptr noundef %0) local_unnamed_addr #0 personality ptr @__gxx_personality_v0 {
  %.not = icmp eq ptr %0, null
  br i1 %.not, label %2, label %_ZN5boost9container3pmr19new_delete_resourceEv.exit

2:                                                ; preds = %1
  %3 = load atomic i8, ptr @_ZGVZN5boost9container3dtl17singleton_defaultINS0_3pmr23new_delete_resource_impEE8instanceEvE3obj acquire, align 8
  %4 = icmp eq i8 %3, 0
  br i1 %4, label %5, label %_ZN5boost9container3pmr19new_delete_resourceEv.exit, !prof !3

5:                                                ; preds = %2
  %6 = tail call i32 @__cxa_guard_acquire(ptr nonnull @_ZGVZN5boost9container3dtl17singleton_defaultINS0_3pmr23new_delete_resource_impEE8instanceEvE3obj) #9
  %.not.i.i = icmp eq i32 %6, 0
  br i1 %.not.i.i, label %_ZN5boost9container3pmr19new_delete_resourceEv.exit, label %7

7:                                                ; preds = %5
  tail call void @__cxa_guard_release(ptr nonnull @_ZGVZN5boost9container3dtl17singleton_defaultINS0_3pmr23new_delete_resource_impEE8instanceEvE3obj) #9
  br label %_ZN5boost9container3pmr19new_delete_resourceEv.exit

_ZN5boost9container3pmr19new_delete_resourceEv.exit: ; preds = %7, %5, %2, %1
  %8 = phi ptr [ %0, %1 ], [ @_ZZN5boost9container3dtl17singleton_defaultINS0_3pmr23new_delete_resource_impEE8instanceEvE3obj, %2 ], [ @_ZZN5boost9container3dtl17singleton_defaultINS0_3pmr23new_delete_resource_impEE8instanceEvE3obj, %5 ], [ @_ZZN5boost9container3dtl17singleton_defaultINS0_3pmr23new_delete_resource_impEE8instanceEvE3obj, %7 ]
  %9 = load atomic i8, ptr @_ZGVZN5boost9container3pmr32default_memory_resource_instanceEvE8instance acquire, align 8
  %10 = icmp eq i8 %9, 0
  br i1 %10, label %11, label %_ZN5boost9container3pmr32default_memory_resource_instanceEv.exit, !prof !3

11:                                               ; preds = %_ZN5boost9container3pmr19new_delete_resourceEv.exit
  %12 = tail call i32 @__cxa_guard_acquire(ptr nonnull @_ZGVZN5boost9container3pmr32default_memory_resource_instanceEvE8instance) #9
  %.not.i = icmp eq i32 %12, 0
  br i1 %.not.i, label %_ZN5boost9container3pmr32default_memory_resource_instanceEv.exit, label %13

13:                                               ; preds = %11
  %14 = tail call noundef ptr @_ZN5boost9container3pmr19new_delete_resourceEv() #9
  store ptr %14, ptr @_ZZN5boost9container3pmr32default_memory_resource_instanceEvE8instance, align 8, !tbaa !4
  tail call void @__cxa_guard_release(ptr nonnull @_ZGVZN5boost9container3pmr32default_memory_resource_instanceEvE8instance) #9
  br label %_ZN5boost9container3pmr32default_memory_resource_instanceEv.exit

_ZN5boost9container3pmr32default_memory_resource_instanceEv.exit: ; preds = %_ZN5boost9container3pmr19new_delete_resourceEv.exit, %11, %13
  %15 = ptrtoint ptr %8 to i64
  %16 = atomicrmw xchg ptr @_ZZN5boost9container3pmr32default_memory_resource_instanceEvE8instance, i64 %15 acq_rel, align 8
  %.0.i.i = inttoptr i64 %16 to ptr
  ret ptr %.0.i.i
}